target datalayout = "e-m:e-p270:32:32-p271:32:32-p272:64:64-i64:64-i128:128-f80:128-n8:16:32:64-S128"
target triple = "x86_64-pc-linux-gnu"

; Function Attrs: inlinehint nounwind uwtable
define internal i64 @mbedtls_ct_if(i64 noundef %0, i64 noundef %1, i64 noundef %2) #3 {
  %4 = alloca i64, align 8
  %5 = alloca i64, align 8
  %6 = alloca i64, align 8
  store i64 %0, ptr %4, align 8, !tbaa !43
  store i64 %1, ptr %5, align 8, !tbaa !43
  store i64 %2, ptr %6, align 8, !tbaa !43
  %7 = load i64, ptr %4, align 8, !tbaa !43
  %8 = load i64, ptr %5, align 8, !tbaa !43
  %9 = load i64, ptr %6, align 8, !tbaa !43
  %10 = call { i64, i64, i64 } asm sideeffect "and  $0, $1                      \0A\09not  $0                              \0A\09and  $0, $2                      \0A\09or   $1, $2                            \0A\09", "=&{di},=&{si},=&{ax},0,1,2,~{dirflag},~{fpsr},~{flags}"(i64 %7, i64 %8, i64 %9) #7, !srcloc !68
  %11 = extractvalue { i64, i64, i64 } %10, 0
  %12 = extractvalue { i64, i64, i64 } %10, 1
  %13 = extractvalue { i64, i64, i64 } %10, 2
  store i64 %11, ptr %4, align 8, !tbaa !43
  store i64 %12, ptr %5, align 8, !tbaa !43
  store i64 %13, ptr %6, align 8, !tbaa !43
  %14 = load i64, ptr %6, align 8, !tbaa !43
  ret i64 %14
}

; Function Attrs: inlinehint nounwind uwtable
define internal i32 @mbedtls_ct_error_if_else_0(i64 noundef %0, i32 noundef %1) #3 {
  %3 = alloca i64, align 8
  %4 = alloca i32, align 4
  store i64 %0, ptr %3, align 8, !tbaa !43
  store i32 %1, ptr %4, align 4, !tbaa !3
  %5 = load i64, ptr %3, align 8, !tbaa !43
  %6 = load i32, ptr %4, align 4, !tbaa !3
  %7 = sub nsw i32 0, %6
  %8 = sext i32 %7 to i64
  %9 = and i64 %5, %8
  %10 = trunc i64 %9 to i32
  %11 = sub nsw i32 0, %10
  ret i32 %11
}

; Function Attrs: inlinehint nounwind uwtable
define internal i64 @mbedtls_ct_bool_not(i64 noundef %0) #3 {
  %2 = alloca i64, align 8
  store i64 %0, ptr %2, align 8, !tbaa !43
  %3 = load i64, ptr %2, align 8, !tbaa !43
  %4 = xor i64 %3, -1
  ret i64 %4
}

; Function Attrs: inlinehint nounwind uwtable
define internal i64 @mbedtls_ct_bool_if(i64 noundef %0, i64 noundef %1, i64 noundef %2) #3 {
  %4 = alloca i64, align 8
  %5 = alloca i64, align 8
  %6 = alloca i64, align 8
  store i64 %0, ptr %4, align 8, !tbaa !43
  store i64 %1, ptr %5, align 8, !tbaa !43
  store i64 %2, ptr %6, align 8, !tbaa !43
  %7 = load i64, ptr %4, align 8, !tbaa !43
  %8 = load i64, ptr %5, align 8, !tbaa !43
  %9 = load i64, ptr %6, align 8, !tbaa !43
  %10 = call i64 @mbedtls_ct_if(i64 noundef %7, i64 noundef %8, i64 noundef %9)
  ret i64 %10
}

; Function Attrs: inlinehint nounwind uwtable
define internal i64 @mbedtls_ct_uint_ne(i64 noundef %0, i64 noundef %1) #3 {
  %3 = alloca i64, align 8
  %4 = alloca i64, align 8
  %5 = alloca i64, align 8
  store i64 %0, ptr %3, align 8, !tbaa !43
  store i64 %1, ptr %4, align 8, !tbaa !43
  call void @llvm.lifetime.start.p0(i64 8, ptr %5) #7
  %6 = load i64, ptr %3, align 8, !tbaa !43
  %7 = call i64 @mbedtls_ct_compiler_opaque(i64 noundef %6)
  %8 = load i64, ptr %4, align 8, !tbaa !43
  %9 = call i64 @mbedtls_ct_compiler_opaque(i64 noundef %8)
  %10 = xor i64 %7, %9
  store i64 %10, ptr %5, align 8, !tbaa !43
  %11 = load i64, ptr %5, align 8, !tbaa !43
  %12 = call i64 @mbedtls_ct_bool(i64 noundef %11)
  call void @llvm.lifetime.end.p0(i64 8, ptr %5) #7
  ret i64 %12
}

; Function Attrs: inlinehint nounwind uwtable
define internal i64 @mbedtls_ct_size_if(i64 noundef %0, i64 noundef %1, i64 noundef %2) #3 {
  %4 = alloca i64, align 8
  %5 = alloca i64, align 8
  %6 = alloca i64, align 8
  store i64 %0, ptr %4, align 8, !tbaa !43
  store i64 %1, ptr %5, align 8, !tbaa !43
  store i64 %2, ptr %6, align 8, !tbaa !43
  %7 = load i64, ptr %4, align 8, !tbaa !43
  %8 = load i64, ptr %5, align 8, !tbaa !43
  %9 = load i64, ptr %6, align 8, !tbaa !43
  %10 = call i64 @mbedtls_ct_if(i64 noundef %7, i64 noundef %8, i64 noundef %9)
  ret i64 %10
}

; Function Attrs: inlinehint nounwind uwtable
define internal i64 @mbedtls_ct_bool_and(i64 noundef %0, i64 noundef %1) #3 {
  %3 = alloca i64, align 8
  %4 = alloca i64, align 8
  store i64 %0, ptr %3, align 8, !tbaa !43
  store i64 %1, ptr %4, align 8, !tbaa !43
  %5 = load i64, ptr %3, align 8, !tbaa !43
  %6 = load i64, ptr %4, align 8, !tbaa !43
  %7 = and i64 %5, %6
  ret i64 %7
}

; Function Attrs: inlinehint nounwind uwtable
define internal i64 @mbedtls_ct_bool(i64 noundef %0) #3 {
  %2 = alloca i64, align 8
  %3 = alloca i64, align 8
  store i64 %0, ptr %2, align 8, !tbaa !43
  call void @llvm.lifetime.start.p0(i64 8, ptr %3) #7
  %4 = load i64, ptr %2, align 8, !tbaa !43
  %5 = call i64 asm sideeffect "mov  $1, $0                                \0A\09neg  $0                                      \0A\09or   $1, $0                                \0A\09sar  $$63, $0                                 \0A\09", "=&{ax},{di},~{dirflag},~{fpsr},~{flags}"(i64 %4) #7, !srcloc !67
  store i64 %5, ptr %3, align 8, !tbaa !43
  %6 = load i64, ptr %3, align 8, !tbaa !43
  call void @llvm.lifetime.end.p0(i64 8, ptr %3) #7
  ret i64 %6
}

; Function Attrs: inlinehint nounwind uwtable
define internal i64 @mbedtls_ct_compiler_opaque(i64 noundef %0) #3 {
  %2 = alloca i64, align 8
  store i64 %0, ptr %2, align 8, !tbaa !43
  %3 = load i64, ptr %2, align 8, !tbaa !43
  %4 = call i64 asm sideeffect "", "=r,0,~{dirflag},~{fpsr},~{flags}"(i64 %3) #7, !srcloc !66
  store i64 %4, ptr %2, align 8, !tbaa !43
  %5 = load i64, ptr %2, align 8, !tbaa !43
  ret i64 %5
}

; Function Attrs: nounwind uwtable
define internal i32 @get_one_and_zeros_padding(ptr noundef %0, i64 noundef %1, ptr noundef %2) #0 {
  %4 = alloca i32, align 4
  %5 = alloca ptr, align 8
  %6 = alloca i64, align 8
  %7 = alloca ptr, align 8
  %8 = alloca i64, align 8
  %9 = alloca i64, align 8
  %10 = alloca i64, align 8
  %11 = alloca i64, align 8
  %12 = alloca i64, align 8
  store ptr %0, ptr %5, align 8, !tbaa !18
  store i64 %1, ptr %6, align 8, !tbaa !43
  store ptr %2, ptr %7, align 8, !tbaa !46
  %13 = load ptr, ptr %5, align 8, !tbaa !18
  %14 = icmp eq ptr null, %13
  br i1 %14, label %18, label %15

15:                                               ; preds = %3
  %16 = load ptr, ptr %7, align 8, !tbaa !46
  %17 = icmp eq ptr null, %16
  br i1 %17, label %18, label %19

18:                                               ; preds = %15, %3
  store i32 -24832, ptr %4, align 4
  br label %64

19:                                               ; preds = %15
  call void @llvm.lifetime.start.p0(i64 8, ptr %8) #7
  %20 = call i64 @mbedtls_ct_compiler_opaque(i64 noundef -1)
  store i64 %20, ptr %8, align 8, !tbaa !43
  call void @llvm.lifetime.start.p0(i64 8, ptr %9) #7
  %21 = call i64 @mbedtls_ct_compiler_opaque(i64 noundef -1)
  store i64 %21, ptr %9, align 8, !tbaa !43
  %22 = load ptr, ptr %7, align 8, !tbaa !46
  store i64 0, ptr %22, align 8, !tbaa !43
  call void @llvm.lifetime.start.p0(i64 8, ptr %10) #7
  %23 = load i64, ptr %6, align 8, !tbaa !43
  %24 = sub nsw i64 %23, 1
  store i64 %24, ptr %10, align 8, !tbaa !43
  br label %25

25:                                               ; preds = %58, %19
  %26 = load i64, ptr %10, align 8, !tbaa !43
  %27 = icmp sge i64 %26, 0
  br i1 %27, label %29, label %28

28:                                               ; preds = %25
  call void @llvm.lifetime.end.p0(i64 8, ptr %10) #7
  br label %61

29:                                               ; preds = %25
  call void @llvm.lifetime.start.p0(i64 8, ptr %11) #7
  %30 = load ptr, ptr %5, align 8, !tbaa !18
  %31 = load i64, ptr %10, align 8, !tbaa !43
  %32 = getelementptr inbounds i8, ptr %30, i64 %31
  %33 = load i8, ptr %32, align 1, !tbaa !57
  %34 = zext i8 %33 to i64
  %35 = call i64 @mbedtls_ct_bool(i64 noundef %34)
  store i64 %35, ptr %11, align 8, !tbaa !43
  call void @llvm.lifetime.start.p0(i64 8, ptr %12) #7
  %36 = load i64, ptr %11, align 8, !tbaa !43
  %37 = load i64, ptr %8, align 8, !tbaa !43
  %38 = call i64 @mbedtls_ct_bool_and(i64 noundef %36, i64 noundef %37)
  store i64 %38, ptr %12, align 8, !tbaa !43
  %39 = load i64, ptr %12, align 8, !tbaa !43
  %40 = load i64, ptr %10, align 8, !tbaa !43
  %41 = load ptr, ptr %7, align 8, !tbaa !46
  %42 = load i64, ptr %41, align 8, !tbaa !43
  %43 = call i64 @mbedtls_ct_size_if(i64 noundef %39, i64 noundef %40, i64 noundef %42)
  %44 = load ptr, ptr %7, align 8, !tbaa !46
  store i64 %43, ptr %44, align 8, !tbaa !43
  %45 = load i64, ptr %12, align 8, !tbaa !43
  %46 = load ptr, ptr %5, align 8, !tbaa !18
  %47 = load i64, ptr %10, align 8, !tbaa !43
  %48 = getelementptr inbounds i8, ptr %46, i64 %47
  %49 = load i8, ptr %48, align 1, !tbaa !57
  %50 = zext i8 %49 to i64
  %51 = call i64 @mbedtls_ct_uint_ne(i64 noundef %50, i64 noundef 128)
  %52 = load i64, ptr %9, align 8, !tbaa !43
  %53 = call i64 @mbedtls_ct_bool_if(i64 noundef %45, i64 noundef %51, i64 noundef %52)
  store i64 %53, ptr %9, align 8, !tbaa !43
  %54 = load i64, ptr %8, align 8, !tbaa !43
  %55 = load i64, ptr %11, align 8, !tbaa !43
  %56 = call i64 @mbedtls_ct_bool_not(i64 noundef %55)
  %57 = call i64 @mbedtls_ct_bool_and(i64 noundef %54, i64 noundef %56)
  store i64 %57, ptr %8, align 8, !tbaa !43
  call void @llvm.lifetime.end.p0(i64 8, ptr %12) #7
  call void @llvm.lifetime.end.p0(i64 8, ptr %11) #7
  br label %58

58:                                               ; preds = %29
  %59 = load i64, ptr %10, align 8, !tbaa !43
  %60 = add nsw i64 %59, -1
  store i64 %60, ptr %10, align 8, !tbaa !43
  br label %25, !llvm.loop !61

61:                                               ; preds = %28
  %62 = load i64, ptr %9, align 8, !tbaa !43
  %63 = call i32 @mbedtls_ct_error_if_else_0(i64 noundef %62, i32 noundef -25088)
  store i32 %63, ptr %4, align 4
  call void @llvm.lifetime.end.p0(i64 8, ptr %9) #7
  call void @llvm.lifetime.end.p0(i64 8, ptr %8) #7
  br label %64

64:                                               ; preds = %61, %18
  %65 = load i32, ptr %4, align 4
  ret i32 %65
}