; Function Attrs: nounwind uwtable
define internal range(i32 -25088, 1) i32 @get_one_and_zeros_padding(ptr noundef readonly %0, i64 noundef %1, ptr noundef %2) #8 {
  %4 = icmp eq ptr %0, null
  %5 = icmp eq ptr %2, null
  %or.cond = or i1 %4, %5
  br i1 %or.cond, label %32, label %6

6:                                                ; preds = %3
  %7 = tail call i64 asm sideeffect "", "=r,0,~{dirflag},~{fpsr},~{flags}"(i64 -1) #15, !srcloc !50
  %8 = tail call i64 asm sideeffect "", "=r,0,~{dirflag},~{fpsr},~{flags}"(i64 -1) #15, !srcloc !50
  store i64 0, ptr %2, align 8, !tbaa !37
  %9 = icmp sgt i64 %1, 0
  br i1 %9, label %.lr.ph, label %._crit_edge

._crit_edge:                                      ; preds = %.lr.ph, %6
  %.024.lcssa = phi i64 [ %8, %6 ], [ %28, %.lr.ph ]
  %10 = trunc i64 %.024.lcssa to i32
  %11 = and i32 %10, 25088
  %12 = sub nsw i32 0, %11
  br label %32

.lr.ph:                                           ; preds = %6, %.lr.ph
  %.02229 = phi i64 [ %30, %.lr.ph ], [ %7, %6 ]
  %.023.in28 = phi i64 [ %.023, %.lr.ph ], [ %1, %6 ]
  %.02427 = phi i64 [ %28, %.lr.ph ], [ %8, %6 ]
  %.023 = add nsw i64 %.023.in28, -1
  %13 = getelementptr inbounds nuw i8, ptr %0, i64 %.023
  %14 = load i8, ptr %13, align 1, !tbaa !47
  %15 = zext i8 %14 to i64
  %16 = tail call i64 asm sideeffect "mov  $1, $0                                \0A\09neg  $0                                      \0A\09or   $1, $0                                \0A\09sar  $$63, $0                                 \0A\09", "=&{ax},{di},~{dirflag},~{fpsr},~{flags}"(i64 %15) #15, !srcloc !51
  %17 = and i64 %16, %.02229
  %18 = load i64, ptr %2, align 8, !tbaa !37
  %19 = tail call { i64, i64, i64 } asm sideeffect "and  $0, $1                      \0A\09not  $0                              \0A\09and  $0, $2                      \0A\09or   $1, $2                            \0A\09", "=&{di},=&{si},=&{ax},0,1,2,~{dirflag},~{fpsr},~{flags}"(i64 %17, i64 %.023, i64 %18) #15, !srcloc !54
  %20 = extractvalue { i64, i64, i64 } %19, 2
  store i64 %20, ptr %2, align 8, !tbaa !37
  %21 = load i8, ptr %13, align 1, !tbaa !47
  %22 = zext i8 %21 to i64
  %23 = tail call i64 asm sideeffect "", "=r,0,~{dirflag},~{fpsr},~{flags}"(i64 range(i64 0, 256) %22) #15, !srcloc !50
  %24 = tail call i64 asm sideeffect "", "=r,0,~{dirflag},~{fpsr},~{flags}"(i64 range(i64 -1, 256) 128) #15, !srcloc !50
  %25 = xor i64 %24, %23
  %26 = tail call i64 asm sideeffect "mov  $1, $0                                \0A\09neg  $0                                      \0A\09or   $1, $0                                \0A\09sar  $$63, $0                                 \0A\09", "=&{ax},{di},~{dirflag},~{fpsr},~{flags}"(i64 %25) #15, !srcloc !51
  %27 = tail call { i64, i64, i64 } asm sideeffect "and  $0, $1                      \0A\09not  $0                              \0A\09and  $0, $2                      \0A\09or   $1, $2                            \0A\09", "=&{di},=&{si},=&{ax},0,1,2,~{dirflag},~{fpsr},~{flags}"(i64 %17, i64 %26, i64 %.02427) #15, !srcloc !54
  %28 = extractvalue { i64, i64, i64 } %27, 2
  %29 = xor i64 %16, -1
  %30 = and i64 %.02229, %29
  %31 = icmp samesign ugt i64 %.023.in28, 1
  br i1 %31, label %.lr.ph, label %._crit_edge, !llvm.loop !55

32:                                               ; preds = %3, %._crit_edge
  %.0 = phi i32 [ %12, %._crit_edge ], [ -24832, %3 ]
  ret i32 %.0
}